target datalayout = "e-m:e-p270:32:32-p271:32:32-p272:64:64-i64:64-i128:128-f80:128-n8:16:32:64-S128"
target triple = "x86_64-pc-linux-gnu"

%"class.std::__cxx11::basic_string" = type { %"struct.std::__cxx11::basic_string<char>::_Alloc_hider", i64, %union.anon }
%"struct.std::__cxx11::basic_string<char>::_Alloc_hider" = type { ptr }
%union.anon = type { i64, [8 x i8] }
%"class.gmx::AbstractPlotModule::Impl" = type <{ %"class.gmx::AnalysisDataPlotSettings", %"class.std::__cxx11::basic_string", ptr, i8, i8, i8, [5 x i8], %"class.std::__cxx11::basic_string", %"class.std::__cxx11::basic_string", %"class.std::__cxx11::basic_string", %"class.std::__cxx11::basic_string", %"class.std::vector.21", %"class.std::__cxx11::basic_string", %"class.std::__cxx11::basic_string", float, [4 x i8] }>
%"class.gmx::AnalysisDataPlotSettings" = type { ptr, i32, i32 }
%"class.std::vector.21" = type { %"struct.std::_Vector_base.22" }
%"struct.std::_Vector_base.22" = type { %"struct.std::_Vector_base<std::__cxx11::basic_string<char>, std::allocator<std::__cxx11::basic_string<char>>>::_Vector_impl" }
%"struct.std::_Vector_base<std::__cxx11::basic_string<char>, std::allocator<std::__cxx11::basic_string<char>>>::_Vector_impl" = type { %"struct.std::_Vector_base<std::__cxx11::basic_string<char>, std::allocator<std::__cxx11::basic_string<char>>>::_Vector_impl_data" }
%"struct.std::_Vector_base<std::__cxx11::basic_string<char>, std::allocator<std::__cxx11::basic_string<char>>>::_Vector_impl_data" = type { ptr, ptr, ptr }

; Function Attrs: mustprogress uwtable
define void @_ZN3gmx18AbstractPlotModule4Impl9closeFileEv(ptr noundef nonnull align 8 dereferenceable(284) %0) #1 align 2 {
  %2 = alloca ptr, align 8
  store ptr %0, ptr %2, align 8, !tbaa !209
  %3 = load ptr, ptr %2, align 8
  %4 = getelementptr inbounds nuw %"class.gmx::AbstractPlotModule::Impl", ptr %3, i32 0, i32 2
  %5 = load ptr, ptr %4, align 8, !tbaa !32
  %6 = icmp ne ptr %5, null
  br i1 %6, label %7, label %20

7:                                                ; preds = %1
  %8 = getelementptr inbounds nuw %"class.gmx::AbstractPlotModule::Impl", ptr %3, i32 0, i32 3
  %9 = load i8, ptr %8, align 8, !tbaa !11, !range !29, !noundef !30
  %10 = trunc i8 %9 to i1
  br i1 %10, label %11, label %15

11:                                               ; preds = %7
  %12 = getelementptr inbounds nuw %"class.gmx::AbstractPlotModule::Impl", ptr %3, i32 0, i32 2
  %13 = load ptr, ptr %12, align 8, !tbaa !32
  %14 = call noundef i32 @_Z14gmx_fio_fcloseP8_IO_FILE(ptr noundef %13)
  br label %18

15:                                               ; preds = %7
  %16 = getelementptr inbounds nuw %"class.gmx::AbstractPlotModule::Impl", ptr %3, i32 0, i32 2
  %17 = load ptr, ptr %16, align 8, !tbaa !32
  call void @_Z9xvgrcloseP8_IO_FILE(ptr noundef %17)
  br label %18

18:                                               ; preds = %15, %11
  %19 = getelementptr inbounds nuw %"class.gmx::AbstractPlotModule::Impl", ptr %3, i32 0, i32 2
  store ptr null, ptr %19, align 8, !tbaa !32
  br label %20

20:                                               ; preds = %18, %1
  ret void
}