; Function Attrs: mustprogress uwtable
define void @_ZN3gmx18AbstractPlotModule4Impl9closeFileEv(ptr noundef nonnull align 8 captures(none) dereferenceable(284) %0) local_unnamed_addr #2 align 2 {
  %2 = getelementptr inbounds nuw i8, ptr %0, i64 48
  %3 = load ptr, ptr %2, align 8, !tbaa !32
  %.not = icmp eq ptr %3, null
  br i1 %.not, label %12, label %4

4:                                                ; preds = %1
  %5 = getelementptr inbounds nuw i8, ptr %0, i64 56
  %6 = load i8, ptr %5, align 8, !tbaa !14, !range !28, !noundef !29
  %7 = trunc nuw i8 %6 to i1
  br i1 %7, label %8, label %10

8:                                                ; preds = %4
  %9 = tail call noundef i32 @_Z14gmx_fio_fcloseP8_IO_FILE(ptr noundef nonnull %3)
  br label %11

10:                                               ; preds = %4
  tail call void @_Z9xvgrcloseP8_IO_FILE(ptr noundef nonnull %3)
  br label %11

11:                                               ; preds = %10, %8
  store ptr null, ptr %2, align 8, !tbaa !32
  br label %12

12:                                               ; preds = %11, %1
  ret void
}